target datalayout = "e-m:e-p270:32:32-p271:32:32-p272:64:64-i64:64-i128:128-f80:128-n8:16:32:64-S128"
target triple = "x86_64-pc-linux-gnu"

%"class.std::shared_ptr" = type { %"class.std::__shared_ptr" }
%"class.std::__shared_ptr" = type { ptr, %"class.std::__shared_count" }
%"class.std::__shared_count" = type { ptr }
%"class.std::vector" = type { %"struct.std::_Vector_base" }
%"struct.std::_Vector_base" = type { %"struct.std::_Vector_base<open_spiel::State::PlayerAction, std::allocator<open_spiel::State::PlayerAction>>::_Vector_impl" }
%"struct.std::_Vector_base<open_spiel::State::PlayerAction, std::allocator<open_spiel::State::PlayerAction>>::_Vector_impl" = type { %"struct.std::_Vector_base<open_spiel::State::PlayerAction, std::allocator<open_spiel::State::PlayerAction>>::_Vector_impl_data" }
%"struct.std::_Vector_base<open_spiel::State::PlayerAction, std::allocator<open_spiel::State::PlayerAction>>::_Vector_impl_data" = type { ptr, ptr, ptr }
%"class.open_spiel::State" = type <{ ptr, %"class.std::shared_ptr", i32, i32, %"class.std::vector", i32, [4 x i8] }>
%"struct.open_spiel::State::PlayerAction" = type { i32, i64 }
%"class.__gnu_cxx::__normal_iterator.41" = type { ptr }

; Function Attrs: mustprogress nounwind uwtable
define linkonce_odr void @_ZNSt15__new_allocatorIN10open_spiel5State12PlayerActionEE7destroyIS2_EEvPT_(ptr noundef nonnull align 1 dereferenceable(1) %0, ptr noundef %1) #5 comdat align 2 {
  %3 = alloca ptr, align 8
  %4 = alloca ptr, align 8
  store ptr %0, ptr %3, align 8
  store ptr %1, ptr %4, align 8
  ret void
}

; Function Attrs: mustprogress nounwind uwtable
define linkonce_odr noundef nonnull align 8 dereferenceable(8) ptr @_ZNK9__gnu_cxx17__normal_iteratorIPN10open_spiel5State12PlayerActionESt6vectorIS3_SaIS3_EEE4baseEv(ptr noundef nonnull align 8 dereferenceable(8) %0) #5 comdat align 2 {
  %2 = alloca ptr, align 8
  store ptr %0, ptr %2, align 8
  %3 = load ptr, ptr %2, align 8
  %4 = getelementptr inbounds nuw %"class.__gnu_cxx::__normal_iterator.41", ptr %3, i32 0, i32 0
  ret ptr %4
}

; Function Attrs: mustprogress nounwind uwtable
define linkonce_odr void @_ZN9__gnu_cxx17__normal_iteratorIPN10open_spiel5State12PlayerActionESt6vectorIS3_SaIS3_EEEC2ERKS4_(ptr noundef nonnull align 8 dereferenceable(8) %0, ptr noundef nonnull align 8 dereferenceable(8) %1) unnamed_addr #5 comdat align 2 {
  %3 = alloca ptr, align 8
  %4 = alloca ptr, align 8
  store ptr %0, ptr %3, align 8
  store ptr %1, ptr %4, align 8
  %5 = load ptr, ptr %3, align 8
  %6 = getelementptr inbounds nuw %"class.__gnu_cxx::__normal_iterator.41", ptr %5, i32 0, i32 0
  %7 = load ptr, ptr %4, align 8
  %8 = load ptr, ptr %7, align 8
  store ptr %8, ptr %6, align 8
  ret void
}

; Function Attrs: mustprogress nounwind uwtable
define linkonce_odr void @_ZNSt16allocator_traitsISaIN10open_spiel5State12PlayerActionEEE7destroyIS2_EEvRS3_PT_(ptr noundef nonnull align 1 dereferenceable(1) %0, ptr noundef %1) #5 comdat align 2 {
  %3 = alloca ptr, align 8
  %4 = alloca ptr, align 8
  store ptr %0, ptr %3, align 8
  store ptr %1, ptr %4, align 8
  %5 = load ptr, ptr %3, align 8
  %6 = load ptr, ptr %4, align 8
  call void @_ZNSt15__new_allocatorIN10open_spiel5State12PlayerActionEE7destroyIS2_EEvPT_(ptr noundef nonnull align 1 dereferenceable(1) %5, ptr noundef %6) #3
  ret void
}

; Function Attrs: mustprogress nounwind uwtable
define linkonce_odr noundef nonnull align 8 dereferenceable(8) ptr @_ZN9__gnu_cxx17__normal_iteratorIPN10open_spiel5State12PlayerActionESt6vectorIS3_SaIS3_EEEppEv(ptr noundef nonnull align 8 dereferenceable(8) %0) #5 comdat align 2 {
  %2 = alloca ptr, align 8
  store ptr %0, ptr %2, align 8
  %3 = load ptr, ptr %2, align 8
  %4 = getelementptr inbounds nuw %"class.__gnu_cxx::__normal_iterator.41", ptr %3, i32 0, i32 0
  %5 = load ptr, ptr %4, align 8
  %6 = getelementptr inbounds %"struct.open_spiel::State::PlayerAction", ptr %5, i32 1
  store ptr %6, ptr %4, align 8
  ret ptr %3
}

; Function Attrs: mustprogress nounwind uwtable
define linkonce_odr noundef nonnull align 8 dereferenceable(16) ptr @_ZNK9__gnu_cxx17__normal_iteratorIPN10open_spiel5State12PlayerActionESt6vectorIS3_SaIS3_EEEdeEv(ptr noundef nonnull align 8 dereferenceable(8) %0) #5 comdat align 2 {
  %2 = alloca ptr, align 8
  store ptr %0, ptr %2, align 8
  %3 = load ptr, ptr %2, align 8
  %4 = getelementptr inbounds nuw %"class.__gnu_cxx::__normal_iterator.41", ptr %3, i32 0, i32 0
  %5 = load ptr, ptr %4, align 8
  ret ptr %5
}

; Function Attrs: mustprogress nounwind uwtable
define linkonce_odr noundef zeroext i1 @_ZN9__gnu_cxxneIPN10open_spiel5State12PlayerActionESt6vectorIS3_SaIS3_EEEEbRKNS_17__normal_iteratorIT_T0_EESD_(ptr noundef nonnull align 8 dereferenceable(8) %0, ptr noundef nonnull align 8 dereferenceable(8) %1) #5 comdat {
  %3 = alloca ptr, align 8
  %4 = alloca ptr, align 8
  store ptr %0, ptr %3, align 8
  store ptr %1, ptr %4, align 8
  %5 = load ptr, ptr %3, align 8
  %6 = call noundef nonnull align 8 dereferenceable(8) ptr @_ZNK9__gnu_cxx17__normal_iteratorIPN10open_spiel5State12PlayerActionESt6vectorIS3_SaIS3_EEE4baseEv(ptr noundef nonnull align 8 dereferenceable(8) %5) #3
  %7 = load ptr, ptr %6, align 8
  %8 = load ptr, ptr %4, align 8
  %9 = call noundef nonnull align 8 dereferenceable(8) ptr @_ZNK9__gnu_cxx17__normal_iteratorIPN10open_spiel5State12PlayerActionESt6vectorIS3_SaIS3_EEE4baseEv(ptr noundef nonnull align 8 dereferenceable(8) %8) #3
  %10 = load ptr, ptr %9, align 8
  %11 = icmp ne ptr %7, %10
  ret i1 %11
}

; Function Attrs: mustprogress nounwind uwtable
define linkonce_odr ptr @_ZNSt6vectorIN10open_spiel5State12PlayerActionESaIS2_EE3endEv(ptr noundef nonnull align 8 dereferenceable(24) %0) #5 comdat align 2 {
  %2 = alloca %"class.__gnu_cxx::__normal_iterator.41", align 8
  %3 = alloca ptr, align 8
  store ptr %0, ptr %3, align 8
  %4 = load ptr, ptr %3, align 8
  %5 = getelementptr inbounds nuw %"struct.std::_Vector_base", ptr %4, i32 0, i32 0
  %6 = getelementptr inbounds nuw %"struct.std::_Vector_base<open_spiel::State::PlayerAction, std::allocator<open_spiel::State::PlayerAction>>::_Vector_impl_data", ptr %5, i32 0, i32 1
  call void @_ZN9__gnu_cxx17__normal_iteratorIPN10open_spiel5State12PlayerActionESt6vectorIS3_SaIS3_EEEC2ERKS4_(ptr noundef nonnull align 8 dereferenceable(8) %2, ptr noundef nonnull align 8 dereferenceable(8) %6) #3
  %7 = getelementptr inbounds nuw %"class.__gnu_cxx::__normal_iterator.41", ptr %2, i32 0, i32 0
  %8 = load ptr, ptr %7, align 8
  ret ptr %8
}

; Function Attrs: mustprogress nounwind uwtable
define linkonce_odr ptr @_ZNSt6vectorIN10open_spiel5State12PlayerActionESaIS2_EE5beginEv(ptr noundef nonnull align 8 dereferenceable(24) %0) #5 comdat align 2 {
  %2 = alloca %"class.__gnu_cxx::__normal_iterator.41", align 8
  %3 = alloca ptr, align 8
  store ptr %0, ptr %3, align 8
  %4 = load ptr, ptr %3, align 8
  %5 = getelementptr inbounds nuw %"struct.std::_Vector_base", ptr %4, i32 0, i32 0
  %6 = getelementptr inbounds nuw %"struct.std::_Vector_base<open_spiel::State::PlayerAction, std::allocator<open_spiel::State::PlayerAction>>::_Vector_impl_data", ptr %5, i32 0, i32 0
  call void @_ZN9__gnu_cxx17__normal_iteratorIPN10open_spiel5State12PlayerActionESt6vectorIS3_SaIS3_EEEC2ERKS4_(ptr noundef nonnull align 8 dereferenceable(8) %2, ptr noundef nonnull align 8 dereferenceable(8) %6) #3
  %7 = getelementptr inbounds nuw %"class.__gnu_cxx::__normal_iterator.41", ptr %2, i32 0, i32 0
  %8 = load ptr, ptr %7, align 8
  ret ptr %8
}

; Function Attrs: mustprogress nounwind uwtable
define linkonce_odr void @_ZNSt6vectorIN10open_spiel5State12PlayerActionESaIS2_EE8pop_backEv(ptr noundef nonnull align 8 dereferenceable(24) %0) #5 comdat align 2 {
  %2 = alloca ptr, align 8
  store ptr %0, ptr %2, align 8
  %3 = load ptr, ptr %2, align 8
  %4 = getelementptr inbounds nuw %"struct.std::_Vector_base", ptr %3, i32 0, i32 0
  %5 = getelementptr inbounds nuw %"struct.std::_Vector_base<open_spiel::State::PlayerAction, std::allocator<open_spiel::State::PlayerAction>>::_Vector_impl_data", ptr %4, i32 0, i32 1
  %6 = load ptr, ptr %5, align 8
  %7 = getelementptr inbounds %"struct.open_spiel::State::PlayerAction", ptr %6, i32 -1
  store ptr %7, ptr %5, align 8
  %8 = getelementptr inbounds nuw %"struct.std::_Vector_base", ptr %3, i32 0, i32 0
  %9 = getelementptr inbounds nuw %"struct.std::_Vector_base", ptr %3, i32 0, i32 0
  %10 = getelementptr inbounds nuw %"struct.std::_Vector_base<open_spiel::State::PlayerAction, std::allocator<open_spiel::State::PlayerAction>>::_Vector_impl_data", ptr %9, i32 0, i32 1
  %11 = load ptr, ptr %10, align 8
  call void @_ZNSt16allocator_traitsISaIN10open_spiel5State12PlayerActionEEE7destroyIS2_EEvRS3_PT_(ptr noundef nonnull align 1 dereferenceable(1) %8, ptr noundef %11) #3
  ret void
}

; Function Attrs: mustprogress uwtable
define void @_ZN10open_spiel10phantom_go14PhantomGoState10UndoActionEil(ptr noundef nonnull align 8 dereferenceable(8846) %0, i32 noundef %1, i64 noundef %2) unnamed_addr #4 align 2 {
  %4 = alloca ptr, align 8
  %5 = alloca i32, align 4
  %6 = alloca i64, align 8
  %7 = alloca ptr, align 8
  %8 = alloca %"class.__gnu_cxx::__normal_iterator.41", align 8
  %9 = alloca %"class.__gnu_cxx::__normal_iterator.41", align 8
  %10 = alloca %"struct.open_spiel::State::PlayerAction", align 8
  store ptr %0, ptr %4, align 8
  store i32 %1, ptr %5, align 4
  store i64 %2, ptr %6, align 8
  %11 = load ptr, ptr %4, align 8
  %12 = getelementptr inbounds nuw %"class.open_spiel::State", ptr %11, i32 0, i32 4
  call void @_ZNSt6vectorIN10open_spiel5State12PlayerActionESaIS2_EE8pop_backEv(ptr noundef nonnull align 8 dereferenceable(24) %12) #3
  %13 = getelementptr inbounds nuw %"class.open_spiel::State", ptr %11, i32 0, i32 5
  %14 = load i32, ptr %13, align 8
  %15 = add nsw i32 %14, -1
  store i32 %15, ptr %13, align 8
  call void @_ZN10open_spiel10phantom_go14PhantomGoState10ResetBoardEv(ptr noundef nonnull align 8 dereferenceable(8846) %11)
  %16 = getelementptr inbounds nuw %"class.open_spiel::State", ptr %11, i32 0, i32 4
  store ptr %16, ptr %7, align 8
  %17 = load ptr, ptr %7, align 8
  %18 = call ptr @_ZNSt6vectorIN10open_spiel5State12PlayerActionESaIS2_EE5beginEv(ptr noundef nonnull align 8 dereferenceable(24) %17) #3
  %19 = getelementptr inbounds nuw %"class.__gnu_cxx::__normal_iterator.41", ptr %8, i32 0, i32 0
  store ptr %18, ptr %19, align 8
  %20 = load ptr, ptr %7, align 8
  %21 = call ptr @_ZNSt6vectorIN10open_spiel5State12PlayerActionESaIS2_EE3endEv(ptr noundef nonnull align 8 dereferenceable(24) %20) #3
  %22 = getelementptr inbounds nuw %"class.__gnu_cxx::__normal_iterator.41", ptr %9, i32 0, i32 0
  store ptr %21, ptr %22, align 8
  br label %23

23:                                               ; preds = %32, %3
  %24 = call noundef zeroext i1 @_ZN9__gnu_cxxneIPN10open_spiel5State12PlayerActionESt6vectorIS3_SaIS3_EEEEbRKNS_17__normal_iteratorIT_T0_EESD_(ptr noundef nonnull align 8 dereferenceable(8) %8, ptr noundef nonnull align 8 dereferenceable(8) %9) #3
  br i1 %24, label %25, label %34

25:                                               ; preds = %23
  %26 = call noundef nonnull align 8 dereferenceable(16) ptr @_ZNK9__gnu_cxx17__normal_iteratorIPN10open_spiel5State12PlayerActionESt6vectorIS3_SaIS3_EEEdeEv(ptr noundef nonnull align 8 dereferenceable(8) %8) #3
  call void @llvm.memcpy.p0.p0.i64(ptr align 8 %10, ptr align 8 %26, i64 16, i1 false)
  %27 = getelementptr inbounds nuw %"struct.open_spiel::State::PlayerAction", ptr %10, i32 0, i32 1
  %28 = load i64, ptr %27, align 8
  %29 = load ptr, ptr %11, align 8
  %30 = getelementptr inbounds ptr, ptr %29, i64 36
  %31 = load ptr, ptr %30, align 8
  call void %31(ptr noundef nonnull align 8 dereferenceable(8846) %11, i64 noundef %28)
  br label %32

32:                                               ; preds = %25
  %33 = call noundef nonnull align 8 dereferenceable(8) ptr @_ZN9__gnu_cxx17__normal_iteratorIPN10open_spiel5State12PlayerActionESt6vectorIS3_SaIS3_EEEppEv(ptr noundef nonnull align 8 dereferenceable(8) %8) #3
  br label %23

34:                                               ; preds = %23
  ret void
}