; Function Attrs: mustprogress uwtable
define void @_ZN10open_spiel10phantom_go14PhantomGoState10UndoActionEil(ptr noundef nonnull align 8 dereferenceable(8846) %0, i32 %1, i64 %2) unnamed_addr #3 align 2 {
  %4 = getelementptr inbounds nuw i8, ptr %0, i64 32
  %5 = getelementptr inbounds i8, ptr %0, i64 40
  %6 = load ptr, ptr %5, align 8
  %7 = getelementptr inbounds i8, ptr %6, i64 -16
  store ptr %7, ptr %5, align 8
  %8 = getelementptr inbounds nuw i8, ptr %0, i64 56
  %9 = load i32, ptr %8, align 8
  %10 = add nsw i32 %9, -1
  store i32 %10, ptr %8, align 8
  tail call void @_ZN10open_spiel10phantom_go14PhantomGoState10ResetBoardEv(ptr noundef nonnull align 8 dereferenceable(8846) %0)
  %11 = load ptr, ptr %4, align 8
  %12 = load ptr, ptr %5, align 8
  %.not6 = icmp eq ptr %11, %12
  br i1 %.not6, label %._crit_edge, label %.lr.ph

.lr.ph:                                           ; preds = %3, %.lr.ph
  %.sroa.03.07 = phi ptr [ %16, %.lr.ph ], [ %11, %3 ]
  %.sroa.1.0..sroa_idx = getelementptr inbounds i8, ptr %.sroa.03.07, i64 8
  %.sroa.1.0.copyload = load i64, ptr %.sroa.1.0..sroa_idx, align 8
  %13 = load ptr, ptr %0, align 8
  %14 = getelementptr inbounds i8, ptr %13, i64 288
  %15 = load ptr, ptr %14, align 8
  tail call void %15(ptr noundef nonnull align 8 dereferenceable(8846) %0, i64 noundef %.sroa.1.0.copyload)
  %16 = getelementptr inbounds i8, ptr %.sroa.03.07, i64 16
  %.not = icmp eq ptr %16, %12
  br i1 %.not, label %._crit_edge, label %.lr.ph

._crit_edge:                                      ; preds = %.lr.ph, %3
  ret void
}